; Function Attrs: mustprogress nounwind uwtable
define internal fastcc noundef zeroext i1 @_ZL14setArgsNoUndefRN4llvm8FunctionE(ptr noundef nonnull align 8 dereferenceable(136) %0) unnamed_addr #0 {
  %2 = getelementptr inbounds nuw i8, ptr %0, i64 104
  %3 = load i64, ptr %2, align 8
  %.not = icmp eq i64 %3, 0
  br i1 %.not, label %._crit_edge, label %.lr.ph

.lr.ph:                                           ; preds = %1, %6
  %.09 = phi i32 [ %7, %6 ], [ 0, %1 ]
  %.078 = phi i1 [ %.1, %6 ], [ false, %1 ]
  %4 = tail call noundef zeroext i1 @_ZNK4llvm8Function17hasParamAttributeEjNS_9Attribute8AttrKindE(ptr noundef nonnull align 8 dereferenceable(136) %0, i32 noundef %.09, i32 noundef 38) #7
  br i1 %4, label %6, label %5

5:                                                ; preds = %.lr.ph
  tail call void @_ZN4llvm8Function12addParamAttrEjNS_9Attribute8AttrKindE(ptr noundef nonnull align 8 dereferenceable(136) %0, i32 noundef %.09, i32 noundef 38) #7
  br label %6

6:                                                ; preds = %.lr.ph, %5
  %.1 = phi i1 [ %.078, %.lr.ph ], [ true, %5 ]
  %7 = add i32 %.09, 1
  %8 = zext i32 %7 to i64
  %9 = load i64, ptr %2, align 8
  %10 = icmp ugt i64 %9, %8
  br i1 %10, label %.lr.ph, label %._crit_edge, !llvm.loop !4

._crit_edge:                                      ; preds = %6, %1
  %.07.lcssa = phi i1 [ false, %1 ], [ %.1, %6 ]
  ret i1 %.07.lcssa
}